target datalayout = "e-m:e-p270:32:32-p271:32:32-p272:64:64-i64:64-i128:128-f80:128-n8:16:32:64-S128"
target triple = "x86_64-pc-linux-gnu"

%struct.buffer_s = type { ptr, i64 }
%struct.Range = type { ptr, i64 }
%struct.RoundBuff_t = type { ptr, i64, i64 }
%struct.ZSTD_customMem = type { ptr, ptr, ptr }
%struct.ZSTDMT_CCtx_s = type { ptr, ptr, ptr, ptr, ptr, %struct.ZSTD_CCtx_params_s, i64, i64, i32, %struct.InBuff_t, %struct.RoundBuff_t, %struct.SerialState, %struct.RSyncState_t, i32, i32, i32, i32, i32, i64, i64, i64, %struct.ZSTD_customMem, ptr, ptr, i8 }
%struct.ZSTD_CCtx_params_s = type { i32, %struct.ZSTD_compressionParameters, %struct.ZSTD_frameParameters, i32, i32, i64, i32, i32, i32, i32, i64, i32, i32, %struct.ldmParams_t, i32, i32, i32, i32, i32, i32, i32, i64, i32, i32, %struct.ZSTD_customMem, i32, i32, ptr, ptr, i32 }
%struct.ZSTD_compressionParameters = type { i32, i32, i32, i32, i32, i32, i32 }
%struct.ZSTD_frameParameters = type { i32, i32, i32 }
%struct.ldmParams_t = type { i32, i32, i32, i32, i32, i32 }
%struct.InBuff_t = type { %struct.Range, %struct.buffer_s, i64 }
%struct.SerialState = type { %union.pthread_mutex_t, %union.pthread_cond_t, %struct.ZSTD_CCtx_params_s, %struct.ldmState_t, %struct.XXH64_state_s, i32, %union.pthread_mutex_t, %union.pthread_cond_t, %struct.ZSTD_window_t }
%struct.ldmState_t = type { %struct.ZSTD_window_t, ptr, i32, ptr, [64 x i64], [64 x %struct.ldmMatchCandidate_t] }
%struct.ldmMatchCandidate_t = type { ptr, i32, i32, ptr }
%struct.XXH64_state_s = type { i64, [4 x i64], [4 x i64], i32, i32, i64 }
%union.pthread_mutex_t = type { %struct.__pthread_mutex_s }
%struct.__pthread_mutex_s = type { i32, i32, i32, i32, i32, i16, i16, %struct.__pthread_internal_list }
%struct.__pthread_internal_list = type { ptr, ptr }
%union.pthread_cond_t = type { %struct.__pthread_cond_s }
%struct.__pthread_cond_s = type { %union.__atomic_wide_counter, %union.__atomic_wide_counter, [2 x i32], [2 x i32], i32, i32, [2 x i32] }
%union.__atomic_wide_counter = type { i64 }
%struct.ZSTD_window_t = type { ptr, ptr, ptr, i32, i32, i32 }
%struct.RSyncState_t = type { i64, i64, i64 }

; Function Attrs: nounwind uwtable
define void @ZSTDMT_updateCParams_whileCompressing(ptr noundef %0, ptr noundef %1) #0 {
  %3 = alloca ptr, align 8
  %4 = alloca ptr, align 8
  %5 = alloca i32, align 4
  %6 = alloca i32, align 4
  %7 = alloca %struct.ZSTD_compressionParameters, align 4
  store ptr %0, ptr %3, align 8, !tbaa !13
  store ptr %1, ptr %4, align 8, !tbaa !77
  call void @llvm.lifetime.start.p0(i64 4, ptr %5) #11
  %8 = load ptr, ptr %3, align 8, !tbaa !13
  %9 = getelementptr inbounds nuw %struct.ZSTDMT_CCtx_s, ptr %8, i32 0, i32 5
  %10 = getelementptr inbounds nuw %struct.ZSTD_CCtx_params_s, ptr %9, i32 0, i32 1
  %11 = getelementptr inbounds nuw %struct.ZSTD_compressionParameters, ptr %10, i32 0, i32 0
  %12 = load i32, ptr %11, align 4, !tbaa !79
  store i32 %12, ptr %5, align 4, !tbaa !3
  call void @llvm.lifetime.start.p0(i64 4, ptr %6) #11
  %13 = load ptr, ptr %4, align 8, !tbaa !77
  %14 = getelementptr inbounds nuw %struct.ZSTD_CCtx_params_s, ptr %13, i32 0, i32 3
  %15 = load i32, ptr %14, align 4, !tbaa !80
  store i32 %15, ptr %6, align 4, !tbaa !3
  br label %16

16:                                               ; preds = %2
  br label %17

17:                                               ; preds = %16
  br label %18

18:                                               ; preds = %17
  %19 = load i32, ptr %6, align 4, !tbaa !3
  %20 = load ptr, ptr %3, align 8, !tbaa !13
  %21 = getelementptr inbounds nuw %struct.ZSTDMT_CCtx_s, ptr %20, i32 0, i32 5
  %22 = getelementptr inbounds nuw %struct.ZSTD_CCtx_params_s, ptr %21, i32 0, i32 3
  store i32 %19, ptr %22, align 4, !tbaa !81
  call void @llvm.lifetime.start.p0(i64 28, ptr %7) #11
  %23 = load ptr, ptr %4, align 8, !tbaa !77
  call void @ZSTD_getCParamsFromCCtxParams(ptr dead_on_unwind writable sret(%struct.ZSTD_compressionParameters) align 4 %7, ptr noundef %23, i64 noundef -1, i64 noundef 0, i32 noundef 0)
  %24 = load i32, ptr %5, align 4, !tbaa !3
  %25 = getelementptr inbounds nuw %struct.ZSTD_compressionParameters, ptr %7, i32 0, i32 0
  store i32 %24, ptr %25, align 4, !tbaa !82
  %26 = load ptr, ptr %3, align 8, !tbaa !13
  %27 = getelementptr inbounds nuw %struct.ZSTDMT_CCtx_s, ptr %26, i32 0, i32 5
  %28 = getelementptr inbounds nuw %struct.ZSTD_CCtx_params_s, ptr %27, i32 0, i32 1
  call void @llvm.memcpy.p0.p0.i64(ptr align 4 %28, ptr align 4 %7, i64 28, i1 false), !tbaa.struct !83
  call void @llvm.lifetime.end.p0(i64 28, ptr %7) #11
  call void @llvm.lifetime.end.p0(i64 4, ptr %6) #11
  call void @llvm.lifetime.end.p0(i64 4, ptr %5) #11
  ret void
}